target datalayout = "e-m:e-p270:32:32-p271:32:32-p272:64:64-i64:64-i128:128-f80:128-n8:16:32:64-S128"
target triple = "x86_64-pc-linux-gnu"

%"class.zmq::msg_t" = type { %union.anon }
%union.anon = type { %struct.anon }
%struct.anon = type { ptr, [34 x i8], i8, i8, i32, %"union.zmq::msg_t::group_t" }
%"union.zmq::msg_t::group_t" = type { %struct.anon.1 }
%struct.anon.1 = type { i8, ptr }

; Function Attrs: mustprogress nounwind uwtable
define noundef i32 @_ZN3zmq5msg_t14set_routing_idEj(ptr noundef nonnull align 8 dereferenceable(64) %0, i32 noundef %1) #0 align 2 {
  %3 = alloca i32, align 4
  %4 = alloca ptr, align 8
  %5 = alloca i32, align 4
  store ptr %0, ptr %4, align 8, !tbaa !3
  store i32 %1, ptr %5, align 4, !tbaa !14
  %6 = load ptr, ptr %4, align 8
  %7 = load i32, ptr %5, align 4, !tbaa !14
  %8 = icmp ne i32 %7, 0
  br i1 %8, label %9, label %13

9:                                                ; preds = %2
  %10 = load i32, ptr %5, align 4, !tbaa !14
  %11 = getelementptr inbounds nuw %"class.zmq::msg_t", ptr %6, i32 0, i32 0
  %12 = getelementptr inbounds nuw %struct.anon, ptr %11, i32 0, i32 4
  store i32 %10, ptr %12, align 4, !tbaa !8
  store i32 0, ptr %3, align 4
  br label %15

13:                                               ; preds = %2
  %14 = call ptr @__errno_location() #16
  store i32 22, ptr %14, align 4, !tbaa !14
  store i32 -1, ptr %3, align 4
  br label %15

15:                                               ; preds = %13, %9
  %16 = load i32, ptr %3, align 4
  ret i32 %16
}