; Function Attrs: mustprogress nofree nosync nounwind willreturn memory(write, inaccessiblemem: none) uwtable
define noundef range(i32 -1, 1) i32 @_ZN3zmq5msg_t14set_routing_idEj(ptr noundef nonnull writeonly align 8 captures(none) dereferenceable(64) %0, i32 noundef %1) local_unnamed_addr #12 align 2 {
  %.not = icmp eq i32 %1, 0
  br i1 %.not, label %5, label %3

3:                                                ; preds = %2
  %4 = getelementptr inbounds nuw i8, ptr %0, i64 44
  store i32 %1, ptr %4, align 4, !tbaa !3
  br label %7

5:                                                ; preds = %2
  %6 = tail call ptr @__errno_location() #22
  store i32 22, ptr %6, align 4, !tbaa !22
  br label %7

7:                                                ; preds = %5, %3
  %.0 = phi i32 [ 0, %3 ], [ -1, %5 ]
  ret i32 %.0
}